target datalayout = "e-m:e-p270:32:32-p271:32:32-p272:64:64-i64:64-i128:128-f80:128-n8:16:32:64-S128"
target triple = "x86_64-pc-linux-gnu"

%struct.ui_st = type { ptr, ptr, ptr, %struct.crypto_ex_data_st, i32, ptr }
%struct.crypto_ex_data_st = type { ptr, ptr }
%struct.ui_string_st = type { i32, ptr, i32, ptr, i64, %union.anon, i32 }
%union.anon = type { %struct.anon.0 }
%struct.anon.0 = type { ptr, ptr, ptr }

@.str = private unnamed_addr constant [30 x i8] c"../openssl/crypto/ui/ui_lib.c\00", align 1
@__func__.UI_get_result_length = private unnamed_addr constant [21 x i8] c"UI_get_result_length\00", align 1

; Function Attrs: nounwind uwtable
define i32 @UI_get_result_string_length(ptr noundef %0) #0 {
  %2 = alloca i32, align 4
  %3 = alloca ptr, align 8
  store ptr %0, ptr %3, align 8, !tbaa !26
  %4 = load ptr, ptr %3, align 8, !tbaa !26
  %5 = getelementptr inbounds nuw %struct.ui_string_st, ptr %4, i32 0, i32 0
  %6 = load i32, ptr %5, align 8, !tbaa !32
  switch i32 %6, label %13 [
    i32 1, label %7
    i32 2, label %7
    i32 0, label %12
    i32 3, label %12
    i32 4, label %12
    i32 5, label %12
  ]

7:                                                ; preds = %1, %1
  %8 = load ptr, ptr %3, align 8, !tbaa !26
  %9 = getelementptr inbounds nuw %struct.ui_string_st, ptr %8, i32 0, i32 4
  %10 = load i64, ptr %9, align 8, !tbaa !41
  %11 = trunc i64 %10 to i32
  store i32 %11, ptr %2, align 4
  br label %14

12:                                               ; preds = %1, %1, %1, %1
  br label %13

13:                                               ; preds = %1, %12
  store i32 -1, ptr %2, align 4
  br label %14

14:                                               ; preds = %13, %7
  %15 = load i32, ptr %2, align 4
  ret i32 %15
}

; Function Attrs: inlinehint nounwind uwtable
define internal ptr @ossl_check_const_UI_STRING_sk_type(ptr noundef %0) #3 {
  %2 = alloca ptr, align 8
  store ptr %0, ptr %2, align 8, !tbaa !24
  %3 = load ptr, ptr %2, align 8, !tbaa !24
  ret ptr %3
}

; Function Attrs: nounwind uwtable
define i32 @UI_get_result_length(ptr noundef %0, i32 noundef %1) #0 {
  %3 = alloca i32, align 4
  %4 = alloca ptr, align 8
  %5 = alloca i32, align 4
  store ptr %0, ptr %4, align 8, !tbaa !8
  store i32 %1, ptr %5, align 4, !tbaa !35
  %6 = load i32, ptr %5, align 4, !tbaa !35
  %7 = icmp slt i32 %6, 0
  br i1 %7, label %8, label %9

8:                                                ; preds = %2
  call void @ERR_new()
  call void @ERR_set_debug(ptr noundef @.str, i32 noundef 427, ptr noundef @__func__.UI_get_result_length)
  call void (i32, i32, ptr, ...) @ERR_set_error(i32 noundef 40, i32 noundef 103, ptr noundef null)
  store i32 -1, ptr %3, align 4
  br label %26

9:                                                ; preds = %2
  %10 = load i32, ptr %5, align 4, !tbaa !35
  %11 = load ptr, ptr %4, align 8, !tbaa !8
  %12 = getelementptr inbounds nuw %struct.ui_st, ptr %11, i32 0, i32 1
  %13 = load ptr, ptr %12, align 8, !tbaa !23
  %14 = call ptr @ossl_check_const_UI_STRING_sk_type(ptr noundef %13)
  %15 = call i32 @OPENSSL_sk_num(ptr noundef %14)
  %16 = icmp sge i32 %10, %15
  br i1 %16, label %17, label %18

17:                                               ; preds = %9
  call void @ERR_new()
  call void @ERR_set_debug(ptr noundef @.str, i32 noundef 431, ptr noundef @__func__.UI_get_result_length)
  call void (i32, i32, ptr, ...) @ERR_set_error(i32 noundef 40, i32 noundef 102, ptr noundef null)
  store i32 -1, ptr %3, align 4
  br label %26

18:                                               ; preds = %9
  %19 = load ptr, ptr %4, align 8, !tbaa !8
  %20 = getelementptr inbounds nuw %struct.ui_st, ptr %19, i32 0, i32 1
  %21 = load ptr, ptr %20, align 8, !tbaa !23
  %22 = call ptr @ossl_check_const_UI_STRING_sk_type(ptr noundef %21)
  %23 = load i32, ptr %5, align 4, !tbaa !35
  %24 = call ptr @OPENSSL_sk_value(ptr noundef %22, i32 noundef %23)
  %25 = call i32 @UI_get_result_string_length(ptr noundef %24)
  store i32 %25, ptr %3, align 4
  br label %26

26:                                               ; preds = %18, %17, %8
  %27 = load i32, ptr %3, align 4
  ret i32 %27
}