; Function Attrs: nounwind uwtable
define i32 @UI_get_result_length(ptr noundef readonly captures(none) %0, i32 noundef %1) local_unnamed_addr #0 {
  %3 = icmp slt i32 %1, 0
  br i1 %3, label %4, label %5

4:                                                ; preds = %2
  tail call void @ERR_new() #8
  tail call void @ERR_set_debug(ptr noundef nonnull @.str, i32 noundef 427, ptr noundef nonnull @__func__.UI_get_result_length) #8
  tail call void (i32, i32, ptr, ...) @ERR_set_error(i32 noundef 40, i32 noundef 103, ptr noundef null) #8
  br label %UI_get_result_string_length.exit

5:                                                ; preds = %2
  %6 = getelementptr inbounds nuw i8, ptr %0, i64 8
  %7 = load ptr, ptr %6, align 8, !tbaa !20
  %8 = tail call i32 @OPENSSL_sk_num(ptr noundef %7) #8
  %.not = icmp slt i32 %1, %8
  br i1 %.not, label %10, label %9

9:                                                ; preds = %5
  tail call void @ERR_new() #8
  tail call void @ERR_set_debug(ptr noundef nonnull @.str, i32 noundef 431, ptr noundef nonnull @__func__.UI_get_result_length) #8
  tail call void (i32, i32, ptr, ...) @ERR_set_error(i32 noundef 40, i32 noundef 102, ptr noundef null) #8
  br label %UI_get_result_string_length.exit

10:                                               ; preds = %5
  %11 = load ptr, ptr %6, align 8, !tbaa !20
  %12 = tail call ptr @OPENSSL_sk_value(ptr noundef %11, i32 noundef %1) #8
  %13 = load i32, ptr %12, align 8, !tbaa !25
  %.off.i = add i32 %13, -1
  %switch.i = icmp ult i32 %.off.i, 2
  br i1 %switch.i, label %14, label %UI_get_result_string_length.exit

14:                                               ; preds = %10
  %15 = getelementptr inbounds nuw i8, ptr %12, i64 32
  %16 = load i64, ptr %15, align 8, !tbaa !32
  %17 = trunc i64 %16 to i32
  br label %UI_get_result_string_length.exit

UI_get_result_string_length.exit:                 ; preds = %14, %10, %9, %4
  %.0 = phi i32 [ -1, %4 ], [ -1, %9 ], [ %17, %14 ], [ -1, %10 ]
  ret i32 %.0
}